; ModuleID = 'source-C-CXX/25/1170.c'
source_filename = "source-C-CXX/25/1170.c"
target datalayout = "e-m:e-p270:32:32-p271:32:32-p272:64:64-i64:64-f80:128-n8:16:32:64-S128"
target triple = "x86_64-pc-linux-gnu"

; Function Attrs: nounwind sspstrong uwtable
define dso_local i32 @main() local_unnamed_addr #0 {
  %1 = alloca [101 x i8], align 16
  %2 = getelementptr inbounds [101 x i8], [101 x i8]* %1, i64 0, i64 0
  call void @llvm.lifetime.start.p0i8(i64 101, i8* nonnull %2) #4
  %3 = call i32 (i8*, ...) bitcast (i32 (...)* @gets to i32 (i8*, ...)*)(i8* nonnull %2) #4
  br label %4

4:                                                ; preds = %12, %0
  %5 = phi i8* [ %2, %0 ], [ %13, %12 ]
  %6 = load i8, i8* %5, align 1, !tbaa !5
  switch i8 %6, label %12 [
    i8 0, label %14
    i8 32, label %7
  ]

7:                                                ; preds = %4
  %8 = getelementptr inbounds i8, i8* %5, i64 1
  %9 = load i8, i8* %8, align 1, !tbaa !5
  %10 = icmp eq i8 %9, 32
  br i1 %10, label %11, label %12

11:                                               ; preds = %7
  store i8 33, i8* %5, align 1, !tbaa !5
  br label %12

12:                                               ; preds = %4, %7, %11
  %13 = getelementptr inbounds i8, i8* %5, i64 1
  br label %4, !llvm.loop !8

14:                                               ; preds = %4, %21
  %15 = phi i64 [ %22, %21 ], [ 0, %4 ]
  %16 = getelementptr inbounds [101 x i8], [101 x i8]* %1, i64 0, i64 %15
  %17 = load i8, i8* %16, align 1, !tbaa !5
  switch i8 %17, label %18 [
    i8 0, label %23
    i8 33, label %21
  ]

18:                                               ; preds = %14
  %19 = sext i8 %17 to i32
  %20 = call i32 @putchar(i32 %19)
  br label %21

21:                                               ; preds = %14, %18
  %22 = add nuw i64 %15, 1
  br label %14, !llvm.loop !10

23:                                               ; preds = %14
  call void @llvm.lifetime.end.p0i8(i64 101, i8* nonnull %2) #4
  ret i32 0
}

; Function Attrs: argmemonly mustprogress nofree nosync nounwind willreturn
declare void @llvm.lifetime.start.p0i8(i64 immarg, i8* nocapture) #1

declare i32 @gets(...) local_unnamed_addr #2

; Function Attrs: argmemonly mustprogress nofree nosync nounwind willreturn
declare void @llvm.lifetime.end.p0i8(i64 immarg, i8* nocapture) #1

; Function Attrs: nofree nounwind
declare noundef i32 @putchar(i32 noundef) local_unnamed_addr #3


!llvm.module.flags = !{!0, !1, !2, !3}
!llvm.ident = !{!4}

!0 = !{i32 1, !"wchar_size", i32 4}
!1 = !{i32 7, !"PIC Level", i32 2}
!2 = !{i32 7, !"PIE Level", i32 2}
!3 = !{i32 7, !"uwtable", i32 1}
!4 = !{!"clang version 13.0.0"}
!5 = !{!6, !6, i64 0}
!6 = !{!"omnipotent char", !7, i64 0}
!7 = !{!"Simple C/C++ TBAA"}
!8 = distinct !{!8, !9}
!9 = !{!"llvm.loop.mustprogress"}
!10 = distinct !{!10, !9}
